target datalayout = "e-m:e-p270:32:32-p271:32:32-p272:64:64-i64:64-i128:128-f80:128-n8:16:32:64-S128"
target triple = "x86_64-pc-linux-gnu"

%struct.AVFilterContext = type { ptr, ptr, ptr, ptr, ptr, i32, ptr, ptr, i32, ptr, ptr, i32, i32, ptr, ptr, ptr, ptr, i32, ptr, i32, i32 }
%struct.FieldHintContext = type { ptr, ptr, ptr, i32, [3 x ptr], i64, i32, i32, [4 x i32], [4 x i32] }
%struct.AVFilterLink = type { ptr, ptr, ptr, ptr, i32, i32, i32, i32, %struct.AVRational, i32, i32, i32, %struct.AVChannelLayout, %struct.AVRational, ptr, i32, %struct.AVFilterFormatsConfig, %struct.AVFilterFormatsConfig }
%struct.AVChannelLayout = type { i32, i32, %union.anon.1, ptr }
%union.anon.1 = type { i64 }
%struct.AVRational = type { i32, i32 }
%struct.AVFilterFormatsConfig = type { ptr, ptr, ptr, ptr, ptr }
%struct.AVPixFmtDescriptor = type { ptr, i8, i8, i8, i64, [4 x %struct.AVComponentDescriptor], ptr }
%struct.AVComponentDescriptor = type { i32, i32, i32, i32, i32 }

; Function Attrs: nounwind uwtable
define internal i32 @config_input(ptr noundef %0) #1 {
  %2 = alloca i32, align 4
  %3 = alloca ptr, align 8
  %4 = alloca ptr, align 8
  %5 = alloca ptr, align 8
  %6 = alloca i32, align 4
  %7 = alloca i32, align 4
  store ptr %0, ptr %3, align 8, !tbaa !32
  call void @llvm.lifetime.start.p0(i64 8, ptr %4) #10
  %8 = load ptr, ptr %3, align 8, !tbaa !32
  %9 = getelementptr inbounds nuw %struct.AVFilterLink, ptr %8, i32 0, i32 2
  %10 = load ptr, ptr %9, align 8, !tbaa !38
  %11 = getelementptr inbounds nuw %struct.AVFilterContext, ptr %10, i32 0, i32 9
  %12 = load ptr, ptr %11, align 8, !tbaa !9
  store ptr %12, ptr %4, align 8, !tbaa !22
  call void @llvm.lifetime.start.p0(i64 8, ptr %5) #10
  %13 = load ptr, ptr %3, align 8, !tbaa !32
  %14 = getelementptr inbounds nuw %struct.AVFilterLink, ptr %13, i32 0, i32 5
  %15 = load i32, ptr %14, align 4, !tbaa !65
  %16 = call ptr @av_pix_fmt_desc_get(i32 noundef %15)
  store ptr %16, ptr %5, align 8, !tbaa !66
  call void @llvm.lifetime.start.p0(i64 4, ptr %6) #10
  %17 = load ptr, ptr %4, align 8, !tbaa !22
  %18 = getelementptr inbounds nuw %struct.FieldHintContext, ptr %17, i32 0, i32 8
  %19 = getelementptr inbounds [4 x i32], ptr %18, i64 0, i64 0
  %20 = load ptr, ptr %3, align 8, !tbaa !32
  %21 = getelementptr inbounds nuw %struct.AVFilterLink, ptr %20, i32 0, i32 5
  %22 = load i32, ptr %21, align 4, !tbaa !65
  %23 = load ptr, ptr %3, align 8, !tbaa !32
  %24 = getelementptr inbounds nuw %struct.AVFilterLink, ptr %23, i32 0, i32 6
  %25 = load i32, ptr %24, align 8, !tbaa !54
  %26 = call i32 @av_image_fill_linesizes(ptr noundef %19, i32 noundef %22, i32 noundef %25)
  store i32 %26, ptr %6, align 4, !tbaa !29
  %27 = icmp slt i32 %26, 0
  br i1 %27, label %28, label %30

28:                                               ; preds = %1
  %29 = load i32, ptr %6, align 4, !tbaa !29
  store i32 %29, ptr %2, align 4
  store i32 1, ptr %7, align 4
  br label %85

30:                                               ; preds = %1
  %31 = load ptr, ptr %5, align 8, !tbaa !66
  %32 = getelementptr inbounds nuw %struct.AVPixFmtDescriptor, ptr %31, i32 0, i32 3
  %33 = load i8, ptr %32, align 2, !tbaa !68
  %34 = call i1 @llvm.is.constant.i8(i8 %33)
  br i1 %34, label %46, label %35

35:                                               ; preds = %30
  %36 = load ptr, ptr %3, align 8, !tbaa !32
  %37 = getelementptr inbounds nuw %struct.AVFilterLink, ptr %36, i32 0, i32 7
  %38 = load i32, ptr %37, align 4, !tbaa !55
  %39 = sub nsw i32 0, %38
  %40 = load ptr, ptr %5, align 8, !tbaa !66
  %41 = getelementptr inbounds nuw %struct.AVPixFmtDescriptor, ptr %40, i32 0, i32 3
  %42 = load i8, ptr %41, align 2, !tbaa !68
  %43 = zext i8 %42 to i32
  %44 = ashr i32 %39, %43
  %45 = sub nsw i32 0, %44
  br label %62

46:                                               ; preds = %30
  %47 = load ptr, ptr %3, align 8, !tbaa !32
  %48 = getelementptr inbounds nuw %struct.AVFilterLink, ptr %47, i32 0, i32 7
  %49 = load i32, ptr %48, align 4, !tbaa !55
  %50 = load ptr, ptr %5, align 8, !tbaa !66
  %51 = getelementptr inbounds nuw %struct.AVPixFmtDescriptor, ptr %50, i32 0, i32 3
  %52 = load i8, ptr %51, align 2, !tbaa !68
  %53 = zext i8 %52 to i32
  %54 = shl i32 1, %53
  %55 = add nsw i32 %49, %54
  %56 = sub nsw i32 %55, 1
  %57 = load ptr, ptr %5, align 8, !tbaa !66
  %58 = getelementptr inbounds nuw %struct.AVPixFmtDescriptor, ptr %57, i32 0, i32 3
  %59 = load i8, ptr %58, align 2, !tbaa !68
  %60 = zext i8 %59 to i32
  %61 = ashr i32 %56, %60
  br label %62

62:                                               ; preds = %46, %35
  %63 = phi i32 [ %45, %35 ], [ %61, %46 ]
  %64 = load ptr, ptr %4, align 8, !tbaa !22
  %65 = getelementptr inbounds nuw %struct.FieldHintContext, ptr %64, i32 0, i32 9
  %66 = getelementptr inbounds [4 x i32], ptr %65, i64 0, i64 2
  store i32 %63, ptr %66, align 8, !tbaa !29
  %67 = load ptr, ptr %4, align 8, !tbaa !22
  %68 = getelementptr inbounds nuw %struct.FieldHintContext, ptr %67, i32 0, i32 9
  %69 = getelementptr inbounds [4 x i32], ptr %68, i64 0, i64 1
  store i32 %63, ptr %69, align 4, !tbaa !29
  %70 = load ptr, ptr %3, align 8, !tbaa !32
  %71 = getelementptr inbounds nuw %struct.AVFilterLink, ptr %70, i32 0, i32 7
  %72 = load i32, ptr %71, align 4, !tbaa !55
  %73 = load ptr, ptr %4, align 8, !tbaa !22
  %74 = getelementptr inbounds nuw %struct.FieldHintContext, ptr %73, i32 0, i32 9
  %75 = getelementptr inbounds [4 x i32], ptr %74, i64 0, i64 3
  store i32 %72, ptr %75, align 4, !tbaa !29
  %76 = load ptr, ptr %4, align 8, !tbaa !22
  %77 = getelementptr inbounds nuw %struct.FieldHintContext, ptr %76, i32 0, i32 9
  %78 = getelementptr inbounds [4 x i32], ptr %77, i64 0, i64 0
  store i32 %72, ptr %78, align 8, !tbaa !29
  %79 = load ptr, ptr %3, align 8, !tbaa !32
  %80 = getelementptr inbounds nuw %struct.AVFilterLink, ptr %79, i32 0, i32 5
  %81 = load i32, ptr %80, align 4, !tbaa !65
  %82 = call i32 @av_pix_fmt_count_planes(i32 noundef %81)
  %83 = load ptr, ptr %4, align 8, !tbaa !22
  %84 = getelementptr inbounds nuw %struct.FieldHintContext, ptr %83, i32 0, i32 6
  store i32 %82, ptr %84, align 8, !tbaa !61
  store i32 0, ptr %2, align 4
  store i32 1, ptr %7, align 4
  br label %85

85:                                               ; preds = %62, %28
  call void @llvm.lifetime.end.p0(i64 4, ptr %6) #10
  call void @llvm.lifetime.end.p0(i64 8, ptr %5) #10
  call void @llvm.lifetime.end.p0(i64 8, ptr %4) #10
  %86 = load i32, ptr %2, align 4
  ret i32 %86
}