; Function Attrs: nounwind uwtable
define internal range(i32 -2147483648, 1) i32 @config_input(ptr noundef readonly captures(none) %0) #1 {
  %2 = getelementptr inbounds nuw i8, ptr %0, i64 16
  %3 = load ptr, ptr %2, align 8, !tbaa !26
  %4 = getelementptr inbounds nuw i8, ptr %3, i64 72
  %5 = load ptr, ptr %4, align 8, !tbaa !4
  %6 = getelementptr inbounds nuw i8, ptr %0, i64 36
  %7 = load i32, ptr %6, align 4, !tbaa !58
  %8 = tail call ptr @av_pix_fmt_desc_get(i32 noundef %7) #9
  %9 = getelementptr inbounds nuw i8, ptr %5, i64 72
  %10 = load i32, ptr %6, align 4, !tbaa !58
  %11 = getelementptr inbounds nuw i8, ptr %0, i64 40
  %12 = load i32, ptr %11, align 8, !tbaa !47
  %13 = tail call i32 @av_image_fill_linesizes(ptr noundef nonnull %9, i32 noundef %10, i32 noundef %12) #9
  %14 = icmp slt i32 %13, 0
  br i1 %14, label %33, label %15

15:                                               ; preds = %1
  %16 = getelementptr inbounds nuw i8, ptr %0, i64 44
  %17 = load i32, ptr %16, align 4, !tbaa !48
  %18 = sub nsw i32 0, %17
  %19 = getelementptr inbounds nuw i8, ptr %8, i64 10
  %20 = load i8, ptr %19, align 2, !tbaa !59
  %21 = zext nneg i8 %20 to i32
  %22 = ashr i32 %18, %21
  %23 = sub nsw i32 0, %22
  %24 = getelementptr inbounds nuw i8, ptr %5, i64 88
  %25 = getelementptr inbounds nuw i8, ptr %5, i64 96
  store i32 %23, ptr %25, align 8, !tbaa !25
  %26 = getelementptr inbounds nuw i8, ptr %5, i64 92
  store i32 %23, ptr %26, align 4, !tbaa !25
  %27 = getelementptr inbounds nuw i8, ptr %0, i64 44
  %28 = load i32, ptr %27, align 4, !tbaa !48
  %29 = getelementptr inbounds nuw i8, ptr %5, i64 100
  store i32 %28, ptr %29, align 4, !tbaa !25
  store i32 %28, ptr %24, align 8, !tbaa !25
  %30 = load i32, ptr %6, align 4, !tbaa !58
  %31 = tail call i32 @av_pix_fmt_count_planes(i32 noundef %30) #9
  %32 = getelementptr inbounds nuw i8, ptr %5, i64 64
  store i32 %31, ptr %32, align 8, !tbaa !54
  br label %33

33:                                               ; preds = %1, %15
  %.0 = phi i32 [ 0, %15 ], [ %13, %1 ]
  ret i32 %.0
}